; Function Attrs: nounwind uwtable
define noalias noundef nonnull ptr @l___private_Lean_Server_Requests_0__Lean_Server_getState_x21(ptr noundef %0, ptr noundef %1, ptr readnone captures(none) %2, ptr noundef %3, ptr readnone captures(none) %4, ptr noundef %5) local_unnamed_addr #1 {
  %7 = tail call ptr @l___private_Init_Dynamic_0__Dynamic_get_x3fImpl___rarg(ptr noundef %1, ptr noundef %3) #6
  %8 = ptrtoint ptr %7 to i64
  %9 = and i64 %8, 1
  %.not.i24 = icmp eq i64 %9, 0
  br i1 %.not.i24, label %13, label %10

10:                                               ; preds = %6
  %11 = lshr i64 %8, 1
  %12 = trunc i64 %11 to i32
  br label %lean_obj_tag.exit

13:                                               ; preds = %6
  %14 = getelementptr i8, ptr %7, i64 4
  %.val.i = load i32, ptr %14, align 4
  %15 = lshr i32 %.val.i, 24
  br label %lean_obj_tag.exit

lean_obj_tag.exit:                                ; preds = %10, %13
  %.0.i = phi i32 [ %12, %10 ], [ %15, %13 ]
  %16 = icmp eq i32 %.0.i, 0
  br i1 %16, label %17, label %31

17:                                               ; preds = %lean_obj_tag.exit
  %18 = load ptr, ptr @l___private_Lean_Server_Requests_0__Lean_Server_getState_x21___closed__1, align 8, !tbaa !9
  %19 = tail call ptr @lean_string_append(ptr noundef %18, ptr noundef %0) #6
  %20 = load ptr, ptr @l_Lean_Server_instInhabitedRequestError___closed__1, align 8, !tbaa !9
  %21 = tail call ptr @lean_string_append(ptr noundef %19, ptr noundef %20) #6
  tail call void @lean_inc_heartbeat() #6
  %22 = tail call noalias ptr @mi_malloc_small(i64 noundef 24) #6
  %23 = icmp eq ptr %22, null
  br i1 %23, label %24, label %lean_alloc_ctor.exit

24:                                               ; preds = %17
  tail call void @lean_internal_panic_out_of_memory() #7
  unreachable

lean_alloc_ctor.exit:                             ; preds = %17
  %25 = getelementptr inbounds nuw i8, ptr %22, i64 4
  %26 = getelementptr inbounds nuw i8, ptr %22, i64 16
  store i64 4, ptr %26, align 8, !tbaa !12
  store i32 1, ptr %22, align 4, !tbaa !4
  store i32 65560, ptr %25, align 4
  %27 = getelementptr inbounds nuw i8, ptr %22, i64 8
  store ptr %21, ptr %27, align 8, !tbaa !9
  tail call void @lean_inc_heartbeat() #6
  %28 = tail call noalias ptr @mi_malloc_small(i64 noundef 24) #6
  %29 = icmp eq ptr %28, null
  br i1 %29, label %30, label %lean_alloc_ctor.exit25

30:                                               ; preds = %lean_alloc_ctor.exit
  tail call void @lean_internal_panic_out_of_memory() #7
  unreachable

31:                                               ; preds = %lean_obj_tag.exit
  %32 = getelementptr inbounds nuw i8, ptr %7, i64 8
  %33 = load ptr, ptr %32, align 8, !tbaa !9
  %34 = ptrtoint ptr %33 to i64
  %35 = and i64 %34, 1
  %.not = icmp eq i64 %35, 0
  br i1 %.not, label %36, label %lean_inc.exit

36:                                               ; preds = %31
  %.val.i26 = load i32, ptr %33, align 4, !tbaa !4
  %37 = icmp sgt i32 %.val.i26, 0
  br i1 %37, label %38, label %40, !prof !11

38:                                               ; preds = %36
  %39 = add nuw i32 %.val.i26, 1
  store i32 %39, ptr %33, align 4, !tbaa !4
  br label %lean_inc.exit

40:                                               ; preds = %36
  %.not.i27 = icmp eq i32 %.val.i26, 0
  br i1 %.not.i27, label %lean_inc.exit, label %41

41:                                               ; preds = %40
  tail call void @lean_inc_ref_cold(ptr noundef nonnull %33) #6
  br label %lean_inc.exit

lean_inc.exit:                                    ; preds = %41, %40, %38, %31
  br i1 %.not.i24, label %42, label %lean_dec.exit

42:                                               ; preds = %lean_inc.exit
  %43 = load i32, ptr %7, align 4, !tbaa !4
  %44 = icmp sgt i32 %43, 1
  br i1 %44, label %45, label %47, !prof !11

45:                                               ; preds = %42
  %46 = add nsw i32 %43, -1
  store i32 %46, ptr %7, align 4, !tbaa !4
  br label %lean_dec.exit

47:                                               ; preds = %42
  %.not.i = icmp eq i32 %43, 0
  br i1 %.not.i, label %lean_dec.exit, label %48

48:                                               ; preds = %47
  tail call void @lean_dec_ref_cold(ptr noundef nonnull %7) #6
  br label %lean_dec.exit

lean_dec.exit:                                    ; preds = %48, %47, %45, %lean_inc.exit
  tail call void @lean_inc_heartbeat() #6
  %49 = tail call noalias ptr @mi_malloc_small(i64 noundef 24) #6
  %50 = icmp eq ptr %49, null
  br i1 %50, label %51, label %lean_alloc_ctor.exit25

51:                                               ; preds = %lean_dec.exit
  tail call void @lean_internal_panic_out_of_memory() #7
  unreachable

lean_alloc_ctor.exit25:                           ; preds = %lean_dec.exit, %lean_alloc_ctor.exit
  %.sink36 = phi ptr [ %28, %lean_alloc_ctor.exit ], [ %49, %lean_dec.exit ]
  %.sink33 = phi i32 [ 16908312, %lean_alloc_ctor.exit ], [ 131096, %lean_dec.exit ]
  %.sink = phi ptr [ %22, %lean_alloc_ctor.exit ], [ %33, %lean_dec.exit ]
  %52 = getelementptr inbounds nuw i8, ptr %.sink36, i64 4
  store i32 1, ptr %.sink36, align 4, !tbaa !4
  store i32 %.sink33, ptr %52, align 4
  %53 = getelementptr inbounds nuw i8, ptr %.sink36, i64 8
  store ptr %.sink, ptr %53, align 8, !tbaa !9
  %54 = getelementptr inbounds nuw i8, ptr %.sink36, i64 16
  store ptr %5, ptr %54, align 8, !tbaa !9
  ret ptr %.sink36
}